target datalayout = "e-m:e-p270:32:32-p271:32:32-p272:64:64-i64:64-i128:128-f80:128-n8:16:32:64-S128"
target triple = "x86_64-pc-linux-gnu"

%struct.archive_read = type { %struct.archive, ptr, i32, i64, i64, %struct.archive_read_client, [16 x %struct.archive_read_filter_bidder], ptr, i32, i64, i32, i32, [16 x %struct.archive_format_descriptor], ptr, ptr, ptr, %struct.anon }
%struct.archive = type { i32, i32, ptr, i32, ptr, i32, i32, ptr, %struct.archive_string, ptr, i32, i32, ptr, ptr, i64, i64, i64, i8, i64 }
%struct.archive_string = type { ptr, i64, i64 }
%struct.archive_read_client = type { ptr, ptr, ptr, ptr, ptr, ptr, i32, i32, i64, ptr }
%struct.archive_read_filter_bidder = type { ptr, ptr, ptr }
%struct.archive_format_descriptor = type { ptr, ptr, ptr, ptr, ptr, ptr, ptr, ptr, ptr, ptr, ptr }
%struct.anon = type { ptr, ptr, i32, ptr, ptr }
%struct._7zip = type { %struct._7z_stream_info, i32, i32, i64, i64, i64, i64, i64, i64, ptr, ptr, ptr, i64, i64, i64, i8, ptr, ptr, i64, i64, i64, i32, i64, i32, i32, i64, i64, i64, i64, %struct.lzma_stream, i32, %struct.bz_stream, i32, %struct.z_stream_s, i32, ptr, i32, i32, %struct.CPpmd7, %struct.CPpmd7z_RangeDec, %struct.IByteIn, %struct.anon.0, i32, i32, i64, [4 x i8], i64, i32, i32, i64, [3 x ptr], [3 x i64], [3 x i64], ptr, i64, i64, i64, [258 x i16], i8, i32, i32, i64, ptr, [64 x i8], i32 }
%struct._7z_stream_info = type { %struct._7z_pack_info, %struct._7z_coders_info, %struct._7z_substream_info }
%struct._7z_pack_info = type { i64, i64, ptr, %struct._7z_digests, ptr }
%struct._7z_digests = type { ptr, ptr }
%struct._7z_coders_info = type { i64, ptr, i64 }
%struct._7z_substream_info = type { i64, ptr, ptr, ptr }
%struct.lzma_stream = type { ptr, i64, i64, ptr, i64, i64, ptr, ptr, ptr, ptr, ptr, ptr, i64, i64, i64, i64, i32, i32 }
%struct.bz_stream = type { ptr, i32, i32, i32, ptr, i32, i32, i32, ptr, ptr, ptr, ptr }
%struct.z_stream_s = type { ptr, i32, i64, ptr, i32, i64, ptr, ptr, ptr, ptr, ptr, i32, i64, i64 }
%struct.CPpmd7 = type { ptr, ptr, ptr, i32, i32, i32, i32, i32, i32, i32, i32, i32, ptr, ptr, ptr, ptr, ptr, i32, [38 x i8], [128 x i8], [38 x i32], [256 x i8], [256 x i8], [256 x i8], %struct.CPpmd_See, [25 x [16 x %struct.CPpmd_See]], [128 x [64 x i16]] }
%struct.CPpmd_See = type { i16, i8, i8 }
%struct.CPpmd7z_RangeDec = type { %struct.IPpmd7_RangeDec, i32, i32, i32, i32, ptr }
%struct.IPpmd7_RangeDec = type { ptr, ptr, ptr }
%struct.IByteIn = type { ptr, ptr }
%struct.anon.0 = type { ptr, i64, i64, i64, ptr, i64, i64, i32 }

@.str.32 = private unnamed_addr constant [23 x i8] c"Truncated 7z file data\00", align 1

; Function Attrs: nounwind uwtable
define internal zeroext i8 @ppmd_read(ptr noundef %0) #0 {
  %2 = alloca i8, align 1
  %3 = alloca ptr, align 8
  %4 = alloca ptr, align 8
  %5 = alloca ptr, align 8
  %6 = alloca i8, align 1
  %7 = alloca i64, align 8
  %8 = alloca ptr, align 8
  %9 = alloca i32, align 4
  store ptr %0, ptr %3, align 8, !tbaa !103
  call void @llvm.lifetime.start.p0(i64 8, ptr %4) #12
  %10 = load ptr, ptr %3, align 8, !tbaa !103
  %11 = getelementptr inbounds nuw %struct.IByteIn, ptr %10, i32 0, i32 0
  %12 = load ptr, ptr %11, align 8, !tbaa !233
  store ptr %12, ptr %4, align 8, !tbaa !9
  call void @llvm.lifetime.start.p0(i64 8, ptr %5) #12
  %13 = load ptr, ptr %4, align 8, !tbaa !9
  %14 = getelementptr inbounds nuw %struct.archive_read, ptr %13, i32 0, i32 13
  %15 = load ptr, ptr %14, align 8, !tbaa !51
  %16 = getelementptr inbounds nuw %struct.archive_format_descriptor, ptr %15, i32 0, i32 0
  %17 = load ptr, ptr %16, align 8, !tbaa !64
  store ptr %17, ptr %5, align 8, !tbaa !13
  call void @llvm.lifetime.start.p0(i64 1, ptr %6) #12
  %18 = load ptr, ptr %5, align 8, !tbaa !13
  %19 = getelementptr inbounds nuw %struct._7zip, ptr %18, i32 0, i32 41
  %20 = getelementptr inbounds nuw %struct.anon.0, ptr %19, i32 0, i32 1
  %21 = load i64, ptr %20, align 8, !tbaa !207
  %22 = icmp sle i64 %21, 0
  br i1 %22, label %23, label %63

23:                                               ; preds = %1
  call void @llvm.lifetime.start.p0(i64 8, ptr %7) #12
  store i64 0, ptr %7, align 8, !tbaa !45
  call void @llvm.lifetime.start.p0(i64 8, ptr %8) #12
  %24 = load ptr, ptr %4, align 8, !tbaa !9
  %25 = load ptr, ptr %5, align 8, !tbaa !13
  %26 = getelementptr inbounds nuw %struct._7zip, ptr %25, i32 0, i32 41
  %27 = getelementptr inbounds nuw %struct.anon.0, ptr %26, i32 0, i32 3
  %28 = load i64, ptr %27, align 8, !tbaa !208
  %29 = add i64 %28, 1
  %30 = call ptr @__archive_read_ahead(ptr noundef %24, i64 noundef %29, ptr noundef %7)
  store ptr %30, ptr %8, align 8, !tbaa !43
  %31 = load ptr, ptr %8, align 8, !tbaa !43
  %32 = icmp eq ptr %31, null
  br i1 %32, label %41, label %33

33:                                               ; preds = %23
  %34 = load i64, ptr %7, align 8, !tbaa !45
  %35 = load ptr, ptr %5, align 8, !tbaa !13
  %36 = getelementptr inbounds nuw %struct._7zip, ptr %35, i32 0, i32 41
  %37 = getelementptr inbounds nuw %struct.anon.0, ptr %36, i32 0, i32 3
  %38 = load i64, ptr %37, align 8, !tbaa !208
  %39 = add nsw i64 %38, 1
  %40 = icmp slt i64 %34, %39
  br i1 %40, label %41, label %47

41:                                               ; preds = %33, %23
  %42 = load ptr, ptr %4, align 8, !tbaa !9
  %43 = getelementptr inbounds nuw %struct.archive_read, ptr %42, i32 0, i32 0
  call void (ptr, i32, ptr, ...) @archive_set_error(ptr noundef %43, i32 noundef 84, ptr noundef @.str.32)
  %44 = load ptr, ptr %5, align 8, !tbaa !13
  %45 = getelementptr inbounds nuw %struct._7zip, ptr %44, i32 0, i32 41
  %46 = getelementptr inbounds nuw %struct.anon.0, ptr %45, i32 0, i32 7
  store i32 1, ptr %46, align 8, !tbaa !216
  store i8 0, ptr %2, align 1
  store i32 1, ptr %9, align 4
  br label %60

47:                                               ; preds = %33
  %48 = load ptr, ptr %5, align 8, !tbaa !13
  %49 = getelementptr inbounds nuw %struct._7zip, ptr %48, i32 0, i32 41
  %50 = getelementptr inbounds nuw %struct.anon.0, ptr %49, i32 0, i32 0
  %51 = load ptr, ptr %50, align 8, !tbaa !206
  %52 = getelementptr inbounds nuw i8, ptr %51, i32 1
  store ptr %52, ptr %50, align 8, !tbaa !206
  %53 = load ptr, ptr %8, align 8, !tbaa !43
  %54 = load ptr, ptr %5, align 8, !tbaa !13
  %55 = getelementptr inbounds nuw %struct._7zip, ptr %54, i32 0, i32 41
  %56 = getelementptr inbounds nuw %struct.anon.0, ptr %55, i32 0, i32 3
  %57 = load i64, ptr %56, align 8, !tbaa !208
  %58 = getelementptr inbounds i8, ptr %53, i64 %57
  %59 = load i8, ptr %58, align 1, !tbaa !44
  store i8 %59, ptr %6, align 1, !tbaa !44
  store i32 0, ptr %9, align 4
  br label %60

60:                                               ; preds = %47, %41
  call void @llvm.lifetime.end.p0(i64 8, ptr %8) #12
  call void @llvm.lifetime.end.p0(i64 8, ptr %7) #12
  %61 = load i32, ptr %9, align 4
  switch i32 %61, label %87 [
    i32 0, label %62
  ]

62:                                               ; preds = %60
  br label %70

63:                                               ; preds = %1
  %64 = load ptr, ptr %5, align 8, !tbaa !13
  %65 = getelementptr inbounds nuw %struct._7zip, ptr %64, i32 0, i32 41
  %66 = getelementptr inbounds nuw %struct.anon.0, ptr %65, i32 0, i32 0
  %67 = load ptr, ptr %66, align 8, !tbaa !206
  %68 = getelementptr inbounds nuw i8, ptr %67, i32 1
  store ptr %68, ptr %66, align 8, !tbaa !206
  %69 = load i8, ptr %67, align 1, !tbaa !44
  store i8 %69, ptr %6, align 1, !tbaa !44
  br label %70

70:                                               ; preds = %63, %62
  %71 = load ptr, ptr %5, align 8, !tbaa !13
  %72 = getelementptr inbounds nuw %struct._7zip, ptr %71, i32 0, i32 41
  %73 = getelementptr inbounds nuw %struct.anon.0, ptr %72, i32 0, i32 1
  %74 = load i64, ptr %73, align 8, !tbaa !207
  %75 = add nsw i64 %74, -1
  store i64 %75, ptr %73, align 8, !tbaa !207
  %76 = load ptr, ptr %5, align 8, !tbaa !13
  %77 = getelementptr inbounds nuw %struct._7zip, ptr %76, i32 0, i32 41
  %78 = getelementptr inbounds nuw %struct.anon.0, ptr %77, i32 0, i32 2
  %79 = load i64, ptr %78, align 8, !tbaa !234
  %80 = add nsw i64 %79, 1
  store i64 %80, ptr %78, align 8, !tbaa !234
  %81 = load ptr, ptr %5, align 8, !tbaa !13
  %82 = getelementptr inbounds nuw %struct._7zip, ptr %81, i32 0, i32 41
  %83 = getelementptr inbounds nuw %struct.anon.0, ptr %82, i32 0, i32 3
  %84 = load i64, ptr %83, align 8, !tbaa !208
  %85 = add nsw i64 %84, 1
  store i64 %85, ptr %83, align 8, !tbaa !208
  %86 = load i8, ptr %6, align 1, !tbaa !44
  store i8 %86, ptr %2, align 1
  store i32 1, ptr %9, align 4
  br label %87

87:                                               ; preds = %70, %60
  call void @llvm.lifetime.end.p0(i64 1, ptr %6) #12
  call void @llvm.lifetime.end.p0(i64 8, ptr %5) #12
  call void @llvm.lifetime.end.p0(i64 8, ptr %4) #12
  %88 = load i8, ptr %2, align 1
  ret i8 %88
}