; Function Attrs: nounwind uwtable
define internal zeroext i8 @ppmd_read(ptr noundef readonly captures(none) %0) #0 {
  %2 = alloca i64, align 8
  %3 = load ptr, ptr %0, align 8, !tbaa !238
  %4 = getelementptr inbounds nuw i8, ptr %3, i64 2072
  %5 = load ptr, ptr %4, align 8, !tbaa !41
  %6 = load ptr, ptr %5, align 8, !tbaa !55
  %7 = getelementptr inbounds nuw i8, ptr %6, i64 19928
  %8 = getelementptr inbounds nuw i8, ptr %6, i64 19936
  %9 = load i64, ptr %8, align 8, !tbaa !212
  %10 = icmp slt i64 %9, 1
  br i1 %10, label %11, label %26

11:                                               ; preds = %1
  call void @llvm.lifetime.start.p0(i64 8, ptr nonnull %2) #17
  store i64 0, ptr %2, align 8, !tbaa !38
  %12 = getelementptr inbounds nuw i8, ptr %6, i64 19952
  %13 = load i64, ptr %12, align 8, !tbaa !213
  %14 = add i64 %13, 1
  %15 = call ptr @__archive_read_ahead(ptr noundef nonnull %3, i64 noundef %14, ptr noundef nonnull %2) #17
  %16 = icmp eq ptr %15, null
  br i1 %16, label %24, label %17

17:                                               ; preds = %11
  %18 = load i64, ptr %2, align 8, !tbaa !38
  %19 = load i64, ptr %12, align 8, !tbaa !213
  %.not = icmp sgt i64 %18, %19
  br i1 %.not, label %.thread, label %24

.thread:                                          ; preds = %17
  %20 = load ptr, ptr %7, align 8, !tbaa !211
  %21 = getelementptr inbounds nuw i8, ptr %20, i64 1
  store ptr %21, ptr %7, align 8, !tbaa !211
  %22 = getelementptr inbounds i8, ptr %15, i64 %19
  %23 = load i8, ptr %22, align 1, !tbaa !37
  call void @llvm.lifetime.end.p0(i64 8, ptr nonnull %2) #17
  %.pre = load i64, ptr %8, align 8, !tbaa !212
  br label %30

24:                                               ; preds = %11, %17
  call void (ptr, i32, ptr, ...) @archive_set_error(ptr noundef nonnull %3, i32 noundef 84, ptr noundef nonnull @.str.32) #17
  %25 = getelementptr inbounds nuw i8, ptr %6, i64 19984
  store i32 1, ptr %25, align 8, !tbaa !219
  call void @llvm.lifetime.end.p0(i64 8, ptr nonnull %2) #17
  br label %39

26:                                               ; preds = %1
  %27 = load ptr, ptr %7, align 8, !tbaa !211
  %28 = getelementptr inbounds nuw i8, ptr %27, i64 1
  store ptr %28, ptr %7, align 8, !tbaa !211
  %29 = load i8, ptr %27, align 1, !tbaa !37
  %.phi.trans.insert = getelementptr inbounds nuw i8, ptr %6, i64 19952
  %.pre24 = load i64, ptr %.phi.trans.insert, align 8, !tbaa !213
  br label %30

30:                                               ; preds = %.thread, %26
  %31 = phi i64 [ %.pre24, %26 ], [ %19, %.thread ]
  %32 = phi i64 [ %9, %26 ], [ %.pre, %.thread ]
  %.120 = phi i8 [ %29, %26 ], [ %23, %.thread ]
  %33 = add nsw i64 %32, -1
  store i64 %33, ptr %8, align 8, !tbaa !212
  %34 = getelementptr inbounds nuw i8, ptr %6, i64 19944
  %35 = load i64, ptr %34, align 8, !tbaa !239
  %36 = add nsw i64 %35, 1
  store i64 %36, ptr %34, align 8, !tbaa !239
  %37 = getelementptr inbounds nuw i8, ptr %6, i64 19952
  %38 = add nsw i64 %31, 1
  store i64 %38, ptr %37, align 8, !tbaa !213
  br label %39

39:                                               ; preds = %24, %30
  %.1 = phi i8 [ %.120, %30 ], [ 0, %24 ]
  ret i8 %.1
}